target datalayout = "e-m:e-p270:32:32-p271:32:32-p272:64:64-i64:64-i128:128-f80:128-n8:16:32:64-S128"
target triple = "x86_64-pc-linux-gnu"

%struct._zend_refcounted_h = type { i32, %union.anon.3 }
%union.anon.3 = type { i32 }
%struct._zval_struct = type { %union._zend_value, %union.anon, %union.anon.2 }
%union._zend_value = type { i64 }
%union.anon = type { i32 }
%union.anon.2 = type { i32 }
%struct.sapi_header_line = type { ptr, i64, i64 }
%struct._zend_execute_data = type { ptr, ptr, ptr, ptr, %struct._zval_struct, ptr, ptr, ptr, ptr }
%struct._zend_string = type { %struct._zend_refcounted_h, i64, i64, [1 x i8] }
%struct.anon.0 = type { i8, i8, %union.anon.1 }
%union.anon.1 = type { i16 }

; Function Attrs: alwaysinline nounwind uwtable
define internal zeroext i8 @zval_get_type(ptr noundef %0) #6 {
  %2 = alloca ptr, align 8
  store ptr %0, ptr %2, align 8, !tbaa !9
  %3 = load ptr, ptr %2, align 8, !tbaa !9
  %4 = getelementptr inbounds nuw %struct._zval_struct, ptr %3, i32 0, i32 1
  %5 = getelementptr inbounds nuw %struct.anon.0, ptr %4, i32 0, i32 0
  %6 = load i8, ptr %5, align 8, !tbaa !15
  ret i8 %6
}

; Function Attrs: alwaysinline nounwind uwtable
define internal zeroext i1 @zend_parse_arg_str_ex(ptr noundef %0, ptr noundef %1, i1 noundef zeroext %2, i32 noundef %3, i1 noundef zeroext %4) #6 {
  %6 = alloca i1, align 1
  %7 = alloca ptr, align 8
  %8 = alloca ptr, align 8
  %9 = alloca i8, align 1
  %10 = alloca i32, align 4
  %11 = alloca i8, align 1
  store ptr %0, ptr %7, align 8, !tbaa !9
  store ptr %1, ptr %8, align 8, !tbaa !91
  %12 = zext i1 %2 to i8
  store i8 %12, ptr %9, align 1, !tbaa !11
  store i32 %3, ptr %10, align 4, !tbaa !13
  %13 = zext i1 %4 to i8
  store i8 %13, ptr %11, align 1, !tbaa !11
  %14 = load ptr, ptr %7, align 8, !tbaa !9
  %15 = call zeroext i8 @zval_get_type(ptr noundef %14)
  %16 = zext i8 %15 to i32
  %17 = icmp eq i32 %16, 6
  %18 = xor i1 %17, true
  %19 = xor i1 %18, true
  %20 = zext i1 %19 to i32
  %21 = sext i32 %20 to i64
  %22 = call i64 @llvm.expect.i64(i64 %21, i64 1)
  %23 = icmp ne i64 %22, 0
  br i1 %23, label %24, label %29

24:                                               ; preds = %5
  %25 = load ptr, ptr %7, align 8, !tbaa !9
  %26 = getelementptr inbounds nuw %struct._zval_struct, ptr %25, i32 0, i32 0
  %27 = load ptr, ptr %26, align 8, !tbaa !15
  %28 = load ptr, ptr %8, align 8, !tbaa !91
  store ptr %27, ptr %28, align 8, !tbaa !29
  br label %53

29:                                               ; preds = %5
  %30 = load i8, ptr %9, align 1, !tbaa !11, !range !18, !noundef !19
  %31 = trunc i8 %30 to i1
  br i1 %31, label %32, label %39

32:                                               ; preds = %29
  %33 = load ptr, ptr %7, align 8, !tbaa !9
  %34 = call zeroext i8 @zval_get_type(ptr noundef %33)
  %35 = zext i8 %34 to i32
  %36 = icmp eq i32 %35, 1
  br i1 %36, label %37, label %39

37:                                               ; preds = %32
  %38 = load ptr, ptr %8, align 8, !tbaa !91
  store ptr null, ptr %38, align 8, !tbaa !29
  br label %52

39:                                               ; preds = %32, %29
  %40 = load i8, ptr %11, align 1, !tbaa !11, !range !18, !noundef !19
  %41 = trunc i8 %40 to i1
  br i1 %41, label %42, label %47

42:                                               ; preds = %39
  %43 = load ptr, ptr %7, align 8, !tbaa !9
  %44 = load ptr, ptr %8, align 8, !tbaa !91
  %45 = load i32, ptr %10, align 4, !tbaa !13
  %46 = call zeroext i1 @zend_flf_parse_arg_str_slow(ptr noundef %43, ptr noundef %44, i32 noundef %45)
  store i1 %46, ptr %6, align 1
  br label %54

47:                                               ; preds = %39
  %48 = load ptr, ptr %7, align 8, !tbaa !9
  %49 = load ptr, ptr %8, align 8, !tbaa !91
  %50 = load i32, ptr %10, align 4, !tbaa !13
  %51 = call zeroext i1 @zend_parse_arg_str_slow(ptr noundef %48, ptr noundef %49, i32 noundef %50)
  store i1 %51, ptr %6, align 1
  br label %54

52:                                               ; preds = %37
  br label %53

53:                                               ; preds = %52, %24
  store i1 true, ptr %6, align 1
  br label %54

54:                                               ; preds = %53, %47, %42
  %55 = load i1, ptr %6, align 1
  ret i1 %55
}

; Function Attrs: alwaysinline nounwind uwtable
define internal zeroext i1 @zend_parse_arg_str(ptr noundef %0, ptr noundef %1, i1 noundef zeroext %2, i32 noundef %3) #6 {
  %5 = alloca ptr, align 8
  %6 = alloca ptr, align 8
  %7 = alloca i8, align 1
  %8 = alloca i32, align 4
  store ptr %0, ptr %5, align 8, !tbaa !9
  store ptr %1, ptr %6, align 8, !tbaa !91
  %9 = zext i1 %2 to i8
  store i8 %9, ptr %7, align 1, !tbaa !11
  store i32 %3, ptr %8, align 4, !tbaa !13
  %10 = load ptr, ptr %5, align 8, !tbaa !9
  %11 = load ptr, ptr %6, align 8, !tbaa !91
  %12 = load i8, ptr %7, align 1, !tbaa !11, !range !18, !noundef !19
  %13 = trunc i8 %12 to i1
  %14 = load i32, ptr %8, align 4, !tbaa !13
  %15 = call zeroext i1 @zend_parse_arg_str_ex(ptr noundef %10, ptr noundef %11, i1 noundef zeroext %13, i32 noundef %14, i1 noundef zeroext false)
  ret i1 %15
}

; Function Attrs: alwaysinline nounwind uwtable
define internal zeroext i1 @zend_parse_arg_string(ptr noundef %0, ptr noundef %1, ptr noundef %2, i1 noundef zeroext %3, i32 noundef %4) #6 {
  %6 = alloca i1, align 1
  %7 = alloca ptr, align 8
  %8 = alloca ptr, align 8
  %9 = alloca ptr, align 8
  %10 = alloca i8, align 1
  %11 = alloca i32, align 4
  %12 = alloca ptr, align 8
  %13 = alloca i32, align 4
  store ptr %0, ptr %7, align 8, !tbaa !9
  store ptr %1, ptr %8, align 8, !tbaa !25
  store ptr %2, ptr %9, align 8, !tbaa !27
  %14 = zext i1 %3 to i8
  store i8 %14, ptr %10, align 1, !tbaa !11
  store i32 %4, ptr %11, align 4, !tbaa !13
  call void @llvm.lifetime.start.p0(i64 8, ptr %12) #13
  %15 = load ptr, ptr %7, align 8, !tbaa !9
  %16 = load i8, ptr %10, align 1, !tbaa !11, !range !18, !noundef !19
  %17 = trunc i8 %16 to i1
  %18 = load i32, ptr %11, align 4, !tbaa !13
  %19 = call zeroext i1 @zend_parse_arg_str(ptr noundef %15, ptr noundef %12, i1 noundef zeroext %17, i32 noundef %18)
  br i1 %19, label %21, label %20

20:                                               ; preds = %5
  store i1 false, ptr %6, align 1
  store i32 1, ptr %13, align 4
  br label %47

21:                                               ; preds = %5
  %22 = load i8, ptr %10, align 1, !tbaa !11, !range !18, !noundef !19
  %23 = trunc i8 %22 to i1
  br i1 %23, label %24, label %37

24:                                               ; preds = %21
  %25 = load ptr, ptr %12, align 8, !tbaa !29
  %26 = icmp ne ptr %25, null
  %27 = xor i1 %26, true
  %28 = xor i1 %27, true
  %29 = xor i1 %28, true
  %30 = zext i1 %29 to i32
  %31 = sext i32 %30 to i64
  %32 = call i64 @llvm.expect.i64(i64 %31, i64 0)
  %33 = icmp ne i64 %32, 0
  br i1 %33, label %34, label %37

34:                                               ; preds = %24
  %35 = load ptr, ptr %8, align 8, !tbaa !25
  store ptr null, ptr %35, align 8, !tbaa !16
  %36 = load ptr, ptr %9, align 8, !tbaa !27
  store i64 0, ptr %36, align 8, !tbaa !23
  br label %46

37:                                               ; preds = %24, %21
  %38 = load ptr, ptr %12, align 8, !tbaa !29
  %39 = getelementptr inbounds nuw %struct._zend_string, ptr %38, i32 0, i32 3
  %40 = getelementptr inbounds [1 x i8], ptr %39, i64 0, i64 0
  %41 = load ptr, ptr %8, align 8, !tbaa !25
  store ptr %40, ptr %41, align 8, !tbaa !16
  %42 = load ptr, ptr %12, align 8, !tbaa !29
  %43 = getelementptr inbounds nuw %struct._zend_string, ptr %42, i32 0, i32 2
  %44 = load i64, ptr %43, align 8, !tbaa !31
  %45 = load ptr, ptr %9, align 8, !tbaa !27
  store i64 %44, ptr %45, align 8, !tbaa !23
  br label %46

46:                                               ; preds = %37, %34
  store i1 true, ptr %6, align 1
  store i32 1, ptr %13, align 4
  br label %47

47:                                               ; preds = %46, %20
  call void @llvm.lifetime.end.p0(i64 8, ptr %12) #13
  %48 = load i1, ptr %6, align 1
  ret i1 %48
}

; Function Attrs: nounwind uwtable
define hidden void @zif_header_remove(ptr noundef %0, ptr noundef %1) #0 {
  %3 = alloca ptr, align 8
  %4 = alloca ptr, align 8
  %5 = alloca %struct.sapi_header_line, align 8
  %6 = alloca ptr, align 8
  %7 = alloca i64, align 8
  %8 = alloca i32, align 4
  %9 = alloca i32, align 4
  %10 = alloca i32, align 4
  %11 = alloca i32, align 4
  %12 = alloca i32, align 4
  %13 = alloca ptr, align 8
  %14 = alloca ptr, align 8
  %15 = alloca i32, align 4
  %16 = alloca ptr, align 8
  %17 = alloca i8, align 1
  %18 = alloca i8, align 1
  %19 = alloca i32, align 4
  %20 = alloca i32, align 4
  store ptr %0, ptr %3, align 8, !tbaa !4
  store ptr %1, ptr %4, align 8, !tbaa !9
  call void @llvm.lifetime.start.p0(i64 24, ptr %5) #13
  call void @llvm.memset.p0.i64(ptr align 8 %5, i8 0, i64 24, i1 false)
  call void @llvm.lifetime.start.p0(i64 8, ptr %6) #13
  store ptr null, ptr %6, align 8, !tbaa !16
  call void @llvm.lifetime.start.p0(i64 8, ptr %7) #13
  store i64 0, ptr %7, align 8, !tbaa !23
  br label %21

21:                                               ; preds = %2
  call void @llvm.lifetime.start.p0(i64 4, ptr %8) #13
  store i32 0, ptr %8, align 4, !tbaa !13
  call void @llvm.lifetime.start.p0(i64 4, ptr %9) #13
  store i32 0, ptr %9, align 4, !tbaa !13
  call void @llvm.lifetime.start.p0(i64 4, ptr %10) #13
  store i32 1, ptr %10, align 4, !tbaa !13
  call void @llvm.lifetime.start.p0(i64 4, ptr %11) #13
  %22 = load ptr, ptr %3, align 8, !tbaa !4
  %23 = getelementptr inbounds nuw %struct._zend_execute_data, ptr %22, i32 0, i32 4
  %24 = getelementptr inbounds nuw %struct._zval_struct, ptr %23, i32 0, i32 2
  %25 = load i32, ptr %24, align 4, !tbaa !15
  store i32 %25, ptr %11, align 4, !tbaa !13
  call void @llvm.lifetime.start.p0(i64 4, ptr %12) #13
  store i32 0, ptr %12, align 4, !tbaa !13
  call void @llvm.lifetime.start.p0(i64 8, ptr %13) #13
  call void @llvm.lifetime.start.p0(i64 8, ptr %14) #13
  store ptr null, ptr %14, align 8, !tbaa !9
  call void @llvm.lifetime.start.p0(i64 4, ptr %15) #13
  store i32 0, ptr %15, align 4, !tbaa !13
  call void @llvm.lifetime.start.p0(i64 8, ptr %16) #13
  store ptr null, ptr %16, align 8, !tbaa !16
  call void @llvm.lifetime.start.p0(i64 1, ptr %17) #13
  store i8 0, ptr %17, align 1, !tbaa !11
  call void @llvm.lifetime.start.p0(i64 1, ptr %18) #13
  store i8 0, ptr %18, align 1, !tbaa !11
  call void @llvm.lifetime.start.p0(i64 4, ptr %19) #13
  store i32 0, ptr %19, align 4, !tbaa !13
  br label %26

26:                                               ; preds = %21
  %27 = load i32, ptr %11, align 4, !tbaa !13
  %28 = load i32, ptr %9, align 4, !tbaa !13
  %29 = icmp ult i32 %27, %28
  %30 = xor i1 %29, true
  %31 = xor i1 %30, true
  %32 = zext i1 %31 to i32
  %33 = sext i32 %32 to i64
  %34 = call i64 @llvm.expect.i64(i64 %33, i64 0)
  %35 = icmp ne i64 %34, 0
  br i1 %35, label %46, label %36

36:                                               ; preds = %26
  %37 = load i32, ptr %11, align 4, !tbaa !13
  %38 = load i32, ptr %10, align 4, !tbaa !13
  %39 = icmp ugt i32 %37, %38
  %40 = xor i1 %39, true
  %41 = xor i1 %40, true
  %42 = zext i1 %41 to i32
  %43 = sext i32 %42 to i64
  %44 = call i64 @llvm.expect.i64(i64 %43, i64 0)
  %45 = icmp ne i64 %44, 0
  br i1 %45, label %46, label %49

46:                                               ; preds = %36, %26
  %47 = load i32, ptr %9, align 4, !tbaa !13
  %48 = load i32, ptr %10, align 4, !tbaa !13
  call void @zend_wrong_parameters_count_error(i32 noundef %47, i32 noundef %48)
  store i32 1, ptr %19, align 4, !tbaa !13
  br label %113

49:                                               ; preds = %36
  %50 = load ptr, ptr %3, align 8, !tbaa !4
  %51 = getelementptr inbounds %struct._zval_struct, ptr %50, i64 4
  store ptr %51, ptr %13, align 8, !tbaa !9
  store i8 1, ptr %18, align 1, !tbaa !11
  %52 = load i32, ptr %12, align 4, !tbaa !13
  %53 = add i32 %52, 1
  store i32 %53, ptr %12, align 4, !tbaa !13
  %54 = load i32, ptr %12, align 4, !tbaa !13
  %55 = load i32, ptr %9, align 4, !tbaa !13
  %56 = icmp ule i32 %54, %55
  br i1 %56, label %62, label %57

57:                                               ; preds = %49
  %58 = load i8, ptr %18, align 1, !tbaa !11, !range !18, !noundef !19
  %59 = trunc i8 %58 to i1
  %60 = zext i1 %59 to i32
  %61 = icmp eq i32 %60, 1
  br label %62

62:                                               ; preds = %57, %49
  %63 = phi i1 [ true, %49 ], [ %61, %57 ]
  call void @llvm.assume(i1 %63)
  %64 = load i32, ptr %12, align 4, !tbaa !13
  %65 = load i32, ptr %9, align 4, !tbaa !13
  %66 = icmp ugt i32 %64, %65
  br i1 %66, label %72, label %67

67:                                               ; preds = %62
  %68 = load i8, ptr %18, align 1, !tbaa !11, !range !18, !noundef !19
  %69 = trunc i8 %68 to i1
  %70 = zext i1 %69 to i32
  %71 = icmp eq i32 %70, 0
  br label %72

72:                                               ; preds = %67, %62
  %73 = phi i1 [ true, %62 ], [ %71, %67 ]
  call void @llvm.assume(i1 %73)
  %74 = load i8, ptr %18, align 1, !tbaa !11, !range !18, !noundef !19
  %75 = trunc i8 %74 to i1
  br i1 %75, label %76, label %88

76:                                               ; preds = %72
  %77 = load i32, ptr %12, align 4, !tbaa !13
  %78 = load i32, ptr %11, align 4, !tbaa !13
  %79 = icmp ugt i32 %77, %78
  %80 = xor i1 %79, true
  %81 = xor i1 %80, true
  %82 = zext i1 %81 to i32
  %83 = sext i32 %82 to i64
  %84 = call i64 @llvm.expect.i64(i64 %83, i64 0)
  %85 = icmp ne i64 %84, 0
  br i1 %85, label %86, label %87

86:                                               ; preds = %76
  br label %113

87:                                               ; preds = %76
  br label %88

88:                                               ; preds = %87, %72
  %89 = load ptr, ptr %13, align 8, !tbaa !9
  %90 = getelementptr inbounds nuw %struct._zval_struct, ptr %89, i32 1
  store ptr %90, ptr %13, align 8, !tbaa !9
  %91 = load ptr, ptr %13, align 8, !tbaa !9
  store ptr %91, ptr %14, align 8, !tbaa !9
  %92 = load ptr, ptr %14, align 8, !tbaa !9
  %93 = load i32, ptr %12, align 4, !tbaa !13
  %94 = call zeroext i1 @zend_parse_arg_string(ptr noundef %92, ptr noundef %6, ptr noundef %7, i1 noundef zeroext true, i32 noundef %93)
  %95 = xor i1 %94, true
  %96 = xor i1 %95, true
  %97 = xor i1 %96, true
  %98 = zext i1 %97 to i32
  %99 = sext i32 %98 to i64
  %100 = call i64 @llvm.expect.i64(i64 %99, i64 0)
  %101 = icmp ne i64 %100, 0
  br i1 %101, label %102, label %103

102:                                              ; preds = %88
  store i32 5, ptr %15, align 4, !tbaa !13
  store i32 9, ptr %19, align 4, !tbaa !13
  br label %113

103:                                              ; preds = %88
  %104 = load i32, ptr %12, align 4, !tbaa !13
  %105 = load i32, ptr %10, align 4, !tbaa !13
  %106 = icmp eq i32 %104, %105
  br i1 %106, label %110, label %107

107:                                              ; preds = %103
  %108 = load i32, ptr %10, align 4, !tbaa !13
  %109 = icmp eq i32 %108, -1
  br label %110

110:                                              ; preds = %107, %103
  %111 = phi i1 [ true, %103 ], [ %109, %107 ]
  call void @llvm.assume(i1 %111)
  br label %112

112:                                              ; preds = %110
  br label %113

113:                                              ; preds = %112, %102, %86, %46
  %114 = load i32, ptr %19, align 4, !tbaa !13
  %115 = icmp ne i32 %114, 0
  %116 = xor i1 %115, true
  %117 = xor i1 %116, true
  %118 = zext i1 %117 to i32
  %119 = sext i32 %118 to i64
  %120 = call i64 @llvm.expect.i64(i64 %119, i64 0)
  %121 = icmp ne i64 %120, 0
  br i1 %121, label %122, label %128

122:                                              ; preds = %113
  %123 = load i32, ptr %19, align 4, !tbaa !13
  %124 = load i32, ptr %12, align 4, !tbaa !13
  %125 = load ptr, ptr %16, align 8, !tbaa !16
  %126 = load i32, ptr %15, align 4, !tbaa !13
  %127 = load ptr, ptr %14, align 8, !tbaa !9
  call void @zend_wrong_parameter_error(i32 noundef %123, i32 noundef %124, ptr noundef %125, i32 noundef %126, ptr noundef %127)
  store i32 1, ptr %20, align 4
  br label %129

128:                                              ; preds = %113
  store i32 0, ptr %20, align 4
  br label %129

129:                                              ; preds = %128, %122
  call void @llvm.lifetime.end.p0(i64 4, ptr %19) #13
  call void @llvm.lifetime.end.p0(i64 1, ptr %18) #13
  call void @llvm.lifetime.end.p0(i64 1, ptr %17) #13
  call void @llvm.lifetime.end.p0(i64 8, ptr %16) #13
  call void @llvm.lifetime.end.p0(i64 4, ptr %15) #13
  call void @llvm.lifetime.end.p0(i64 8, ptr %14) #13
  call void @llvm.lifetime.end.p0(i64 8, ptr %13) #13
  call void @llvm.lifetime.end.p0(i64 4, ptr %12) #13
  call void @llvm.lifetime.end.p0(i64 4, ptr %11) #13
  call void @llvm.lifetime.end.p0(i64 4, ptr %10) #13
  call void @llvm.lifetime.end.p0(i64 4, ptr %9) #13
  call void @llvm.lifetime.end.p0(i64 4, ptr %8) #13
  %130 = load i32, ptr %20, align 4
  switch i32 %130, label %142 [
    i32 0, label %131
  ]

131:                                              ; preds = %129
  br label %132

132:                                              ; preds = %131
  br label %133

133:                                              ; preds = %132
  %134 = load ptr, ptr %6, align 8, !tbaa !16
  %135 = getelementptr inbounds nuw %struct.sapi_header_line, ptr %5, i32 0, i32 0
  store ptr %134, ptr %135, align 8, !tbaa !20
  %136 = load i64, ptr %7, align 8, !tbaa !23
  %137 = getelementptr inbounds nuw %struct.sapi_header_line, ptr %5, i32 0, i32 1
  store i64 %136, ptr %137, align 8, !tbaa !24
  %138 = load ptr, ptr %6, align 8, !tbaa !16
  %139 = icmp eq ptr %138, null
  %140 = select i1 %139, i32 3, i32 2
  %141 = call i32 @sapi_header_op(i32 noundef %140, ptr noundef %5)
  store i32 0, ptr %20, align 4
  br label %142

142:                                              ; preds = %133, %129
  call void @llvm.lifetime.end.p0(i64 8, ptr %7) #13
  call void @llvm.lifetime.end.p0(i64 8, ptr %6) #13
  call void @llvm.lifetime.end.p0(i64 24, ptr %5) #13
  %143 = load i32, ptr %20, align 4
  switch i32 %143, label %145 [
    i32 0, label %144
    i32 1, label %144
  ]

144:                                              ; preds = %142, %142
  ret void

145:                                              ; preds = %142
  unreachable
}