; Function Attrs: nounwind uwtable
define hidden void @zif_header_remove(ptr noundef %0, ptr noundef readnone captures(none) %1) local_unnamed_addr #0 {
  %3 = alloca ptr, align 8
  %4 = alloca %struct.sapi_header_line, align 8
  call void @llvm.lifetime.start.p0(i64 24, ptr nonnull %4) #10
  call void @llvm.memset.p0.i64(ptr noundef nonnull align 8 dereferenceable(24) %4, i8 0, i64 24, i1 false)
  %5 = getelementptr inbounds nuw i8, ptr %0, i64 44
  %6 = load i32, ptr %5, align 4, !tbaa !8
  %7 = icmp ugt i32 %6, 1
  br i1 %7, label %.thread53, label %8, !prof !17

.thread53:                                        ; preds = %2
  tail call void @zend_wrong_parameters_count_error(i32 noundef 0, i32 noundef 1) #10
  br label %23

8:                                                ; preds = %2
  %9 = icmp eq i32 %6, 0
  br i1 %9, label %.critedge, label %10, !prof !17

10:                                               ; preds = %8
  %11 = getelementptr inbounds nuw i8, ptr %0, i64 80
  call void @llvm.lifetime.start.p0(i64 8, ptr nonnull %3) #10
  %12 = getelementptr inbounds nuw i8, ptr %0, i64 88
  %13 = load i8, ptr %12, align 8, !tbaa !8
  switch i8 %13, label %zend_parse_arg_str_ex.exit [
    i8 6, label %14
    i8 1, label %zend_parse_arg_str_ex.exit.thread
  ], !prof !29

14:                                               ; preds = %10
  %15 = load ptr, ptr %11, align 8, !tbaa !8
  br label %zend_parse_arg_str_ex.exit.thread

zend_parse_arg_str_ex.exit:                       ; preds = %10
  %16 = call zeroext i1 @zend_parse_arg_str_slow(ptr noundef nonnull %11, ptr noundef nonnull %3, i32 noundef 1) #10
  br i1 %16, label %thread-pre-split, label %22

thread-pre-split:                                 ; preds = %zend_parse_arg_str_ex.exit
  %.pr = load ptr, ptr %3, align 8
  br label %zend_parse_arg_str_ex.exit.thread

zend_parse_arg_str_ex.exit.thread:                ; preds = %14, %10, %thread-pre-split
  %17 = phi ptr [ %.pr, %thread-pre-split ], [ %15, %14 ], [ null, %10 ]
  %.not.i = icmp eq ptr %17, null
  br i1 %.not.i, label %.thread65, label %18, !prof !30

18:                                               ; preds = %zend_parse_arg_str_ex.exit.thread
  %19 = getelementptr inbounds nuw i8, ptr %17, i64 24
  %20 = getelementptr inbounds nuw i8, ptr %17, i64 16
  %21 = load i64, ptr %20, align 8, !tbaa !12
  br label %.thread65

.thread65:                                        ; preds = %zend_parse_arg_str_ex.exit.thread, %18
  %.2.ph = phi ptr [ null, %zend_parse_arg_str_ex.exit.thread ], [ %19, %18 ]
  %.1.ph = phi i64 [ 0, %zend_parse_arg_str_ex.exit.thread ], [ %21, %18 ]
  call void @llvm.lifetime.end.p0(i64 8, ptr nonnull %3) #10
  br label %.critedge

22:                                               ; preds = %zend_parse_arg_str_ex.exit
  call void @llvm.lifetime.end.p0(i64 8, ptr nonnull %3) #10
  br label %23

23:                                               ; preds = %22, %.thread53
  %.03164 = phi i32 [ 1, %.thread53 ], [ 9, %22 ]
  %.03263 = phi i32 [ 0, %.thread53 ], [ 1, %22 ]
  %.03362 = phi i32 [ 0, %.thread53 ], [ 5, %22 ]
  %.03461 = phi ptr [ null, %.thread53 ], [ %11, %22 ]
  call void @zend_wrong_parameter_error(i32 noundef %.03164, i32 noundef %.03263, ptr noundef null, i32 noundef %.03362, ptr noundef %.03461) #10
  br label %28

.critedge:                                        ; preds = %8, %.thread65
  %.052 = phi i64 [ %.1.ph, %.thread65 ], [ 0, %8 ]
  %.03951 = phi ptr [ %.2.ph, %.thread65 ], [ null, %8 ]
  store ptr %.03951, ptr %4, align 8, !tbaa !22
  %24 = getelementptr inbounds nuw i8, ptr %4, i64 8
  store i64 %.052, ptr %24, align 8, !tbaa !26
  %25 = icmp eq ptr %.03951, null
  %26 = select i1 %25, i32 3, i32 2
  %27 = call i32 @sapi_header_op(i32 noundef %26, ptr noundef nonnull %4) #10
  br label %28

28:                                               ; preds = %23, %.critedge
  call void @llvm.lifetime.end.p0(i64 24, ptr nonnull %4) #10
  ret void
}